
licenseCrackme:     file format elf64-x86-64


Disassembly of section .init:

0000000000001000 <_init>:
    1000:	48 83 ec 08          	sub    rsp,0x8
    1004:	48 8b 05 f5 21 00 00 	mov    rax,QWORD PTR [rip+0x21f5]        # 3200 <__gmon_start__@Base>
    100b:	48 85 c0             	test   rax,rax
    100e:	74 02                	je     1012 <_init+0x12>
    1010:	ff d0                	call   rax
    1012:	48 83 c4 08          	add    rsp,0x8
    1016:	c3                   	ret    

Disassembly of section .plt:

0000000000001020 <puts@plt-0x10>:
    1020:	ff 35 e2 2f 00 00    	push   QWORD PTR [rip+0x2fe2]        # 4008 <_GLOBAL_OFFSET_TABLE_+0x8>
    1026:	ff 25 e4 2f 00 00    	jmp    QWORD PTR [rip+0x2fe4]        # 4010 <_GLOBAL_OFFSET_TABLE_+0x10>
    102c:	0f 1f 40 00          	nop    DWORD PTR [rax+0x0]

0000000000001030 <puts@plt>:
    1030:	ff 25 e2 2f 00 00    	jmp    QWORD PTR [rip+0x2fe2]        # 4018 <puts@GLIBC_2.2.5>
    1036:	68 00 00 00 00       	push   0x0
    103b:	e9 e0 ff ff ff       	jmp    1020 <_init+0x20>

0000000000001040 <printf@plt>:
    1040:	ff 25 da 2f 00 00    	jmp    QWORD PTR [rip+0x2fda]        # 4020 <printf@GLIBC_2.2.5>
    1046:	68 01 00 00 00       	push   0x1
    104b:	e9 d0 ff ff ff       	jmp    1020 <_init+0x20>

0000000000001050 <strcmp@plt>:
    1050:	ff 25 d2 2f 00 00    	jmp    QWORD PTR [rip+0x2fd2]        # 4028 <strcmp@GLIBC_2.2.5>
    1056:	68 02 00 00 00       	push   0x2
    105b:	e9 c0 ff ff ff       	jmp    1020 <_init+0x20>

Disassembly of section .plt.got:

0000000000001060 <__cxa_finalize@plt>:
    1060:	ff 25 aa 21 00 00    	jmp    QWORD PTR [rip+0x21aa]        # 3210 <__cxa_finalize@GLIBC_2.2.5>
    1066:	66 90                	xchg   ax,ax

Disassembly of section .text:

0000000000001070 <_start>:
    1070:	31 ed                	xor    ebp,ebp
    1072:	49 89 d1             	mov    r9,rdx
    1075:	5e                   	pop    rsi
    1076:	48 89 e2             	mov    rdx,rsp
    1079:	48 83 e4 f0          	and    rsp,0xfffffffffffffff0
    107d:	50                   	push   rax
    107e:	54                   	push   rsp
    107f:	4c 8d 05 ba 01 00 00 	lea    r8,[rip+0x1ba]        # 1240 <__libc_csu_fini>
    1086:	48 8d 0d 53 01 00 00 	lea    rcx,[rip+0x153]        # 11e0 <__libc_csu_init>
    108d:	48 8d 3d c1 00 00 00 	lea    rdi,[rip+0xc1]        # 1155 <main>
    1094:	ff 15 5e 21 00 00    	call   QWORD PTR [rip+0x215e]        # 31f8 <__libc_start_main@GLIBC_2.2.5>
    109a:	f4                   	hlt    
    109b:	0f 1f 44 00 00       	nop    DWORD PTR [rax+rax*1+0x0]

00000000000010a0 <deregister_tm_clones>:
    10a0:	48 8d 3d 99 2f 00 00 	lea    rdi,[rip+0x2f99]        # 4040 <__TMC_END__>
    10a7:	48 8d 05 92 2f 00 00 	lea    rax,[rip+0x2f92]        # 4040 <__TMC_END__>
    10ae:	48 39 f8             	cmp    rax,rdi
    10b1:	74 15                	je     10c8 <deregister_tm_clones+0x28>
    10b3:	48 8b 05 36 21 00 00 	mov    rax,QWORD PTR [rip+0x2136]        # 31f0 <_ITM_deregisterTMCloneTable@Base>
    10ba:	48 85 c0             	test   rax,rax
    10bd:	74 09                	je     10c8 <deregister_tm_clones+0x28>
    10bf:	ff e0                	jmp    rax
    10c1:	0f 1f 80 00 00 00 00 	nop    DWORD PTR [rax+0x0]
    10c8:	c3                   	ret    
    10c9:	0f 1f 80 00 00 00 00 	nop    DWORD PTR [rax+0x0]

00000000000010d0 <register_tm_clones>:
    10d0:	48 8d 3d 69 2f 00 00 	lea    rdi,[rip+0x2f69]        # 4040 <__TMC_END__>
    10d7:	48 8d 35 62 2f 00 00 	lea    rsi,[rip+0x2f62]        # 4040 <__TMC_END__>
    10de:	48 29 fe             	sub    rsi,rdi
    10e1:	48 89 f0             	mov    rax,rsi
    10e4:	48 c1 ee 3f          	shr    rsi,0x3f
    10e8:	48 c1 f8 03          	sar    rax,0x3
    10ec:	48 01 c6             	add    rsi,rax
    10ef:	48 d1 fe             	sar    rsi,1
    10f2:	74 14                	je     1108 <register_tm_clones+0x38>
    10f4:	48 8b 05 0d 21 00 00 	mov    rax,QWORD PTR [rip+0x210d]        # 3208 <_ITM_registerTMCloneTable@Base>
    10fb:	48 85 c0             	test   rax,rax
    10fe:	74 08                	je     1108 <register_tm_clones+0x38>
    1100:	ff e0                	jmp    rax
    1102:	66 0f 1f 44 00 00    	nop    WORD PTR [rax+rax*1+0x0]
    1108:	c3                   	ret    
    1109:	0f 1f 80 00 00 00 00 	nop    DWORD PTR [rax+0x0]

0000000000001110 <__do_global_dtors_aux>:
    1110:	80 3d 29 2f 00 00 00 	cmp    BYTE PTR [rip+0x2f29],0x0        # 4040 <__TMC_END__>
    1117:	75 2f                	jne    1148 <__do_global_dtors_aux+0x38>
    1119:	55                   	push   rbp
    111a:	48 83 3d ee 20 00 00 	cmp    QWORD PTR [rip+0x20ee],0x0        # 3210 <__cxa_finalize@GLIBC_2.2.5>
    1121:	00 
    1122:	48 89 e5             	mov    rbp,rsp
    1125:	74 0c                	je     1133 <__do_global_dtors_aux+0x23>
    1127:	48 8b 3d 0a 2f 00 00 	mov    rdi,QWORD PTR [rip+0x2f0a]        # 4038 <__dso_handle>
    112e:	e8 2d ff ff ff       	call   1060 <__cxa_finalize@plt>
    1133:	e8 68 ff ff ff       	call   10a0 <deregister_tm_clones>
    1138:	c6 05 01 2f 00 00 01 	mov    BYTE PTR [rip+0x2f01],0x1        # 4040 <__TMC_END__>
    113f:	5d                   	pop    rbp
    1140:	c3                   	ret    
    1141:	0f 1f 80 00 00 00 00 	nop    DWORD PTR [rax+0x0]
    1148:	c3                   	ret    
    1149:	0f 1f 80 00 00 00 00 	nop    DWORD PTR [rax+0x0]

0000000000001150 <frame_dummy>:
    1150:	e9 7b ff ff ff       	jmp    10d0 <register_tm_clones>

0000000000001155 <main>:
    1155:	55                   	push   rbp
    1156:	48 89 e5             	mov    rbp,rsp
    1159:	48 83 ec 10          	sub    rsp,0x10
    115d:	89 7d fc             	mov    DWORD PTR [rbp-0x4],edi
    1160:	48 89 75 f0          	mov    QWORD PTR [rbp-0x10],rsi
    1164:	83 7d fc 02          	cmp    DWORD PTR [rbp-0x4],0x2
    1168:	75 59                	jne    11c3 <main+0x6e>
    116a:	48 8b 45 f0          	mov    rax,QWORD PTR [rbp-0x10]
    116e:	48 83 c0 08          	add    rax,0x8
    1172:	48 8b 00             	mov    rax,QWORD PTR [rax]
    1175:	48 89 c6             	mov    rsi,rax
    1178:	48 8d 3d 85 0e 00 00 	lea    rdi,[rip+0xe85]        # 2004 <_IO_stdin_used+0x4>
    117f:	b8 00 00 00 00       	mov    eax,0x0
    1184:	e8 b7 fe ff ff       	call   1040 <printf@plt>
    1189:	48 8b 45 f0          	mov    rax,QWORD PTR [rbp-0x10]
    118d:	48 83 c0 08          	add    rax,0x8
    1191:	48 8b 00             	mov    rax,QWORD PTR [rax]
    1194:	48 8d 35 7f 0e 00 00 	lea    rsi,[rip+0xe7f]        # 201a <_IO_stdin_used+0x1a>
    119b:	48 89 c7             	mov    rdi,rax
    119e:	e8 ad fe ff ff       	call   1050 <strcmp@plt>
    11a3:	85 c0                	test   eax,eax
    11a5:	75 0e                	jne    11b5 <main+0x60>
    11a7:	48 8d 3d 7c 0e 00 00 	lea    rdi,[rip+0xe7c]        # 202a <_IO_stdin_used+0x2a>
    11ae:	e8 7d fe ff ff       	call   1030 <puts@plt>
    11b3:	eb 1a                	jmp    11cf <main+0x7a>
    11b5:	48 8d 3d 7e 0e 00 00 	lea    rdi,[rip+0xe7e]        # 203a <_IO_stdin_used+0x3a>
    11bc:	e8 6f fe ff ff       	call   1030 <puts@plt>
    11c1:	eb 0c                	jmp    11cf <main+0x7a>
    11c3:	48 8d 3d 77 0e 00 00 	lea    rdi,[rip+0xe77]        # 2041 <_IO_stdin_used+0x41>
    11ca:	e8 61 fe ff ff       	call   1030 <puts@plt>
    11cf:	b8 00 00 00 00       	mov    eax,0x0
    11d4:	c9                   	leave  
    11d5:	c3                   	ret    
    11d6:	66 2e 0f 1f 84 00 00 	cs nop WORD PTR [rax+rax*1+0x0]
    11dd:	00 00 00 

00000000000011e0 <__libc_csu_init>:
    11e0:	41 57                	push   r15
    11e2:	4c 8d 3d 17 1e 00 00 	lea    r15,[rip+0x1e17]        # 3000 <__frame_dummy_init_array_entry>
    11e9:	41 56                	push   r14
    11eb:	49 89 d6             	mov    r14,rdx
    11ee:	41 55                	push   r13
    11f0:	49 89 f5             	mov    r13,rsi
    11f3:	41 54                	push   r12
    11f5:	41 89 fc             	mov    r12d,edi
    11f8:	55                   	push   rbp
    11f9:	48 8d 2d 08 1e 00 00 	lea    rbp,[rip+0x1e08]        # 3008 <__do_global_dtors_aux_fini_array_entry>
    1200:	53                   	push   rbx
    1201:	4c 29 fd             	sub    rbp,r15
    1204:	48 83 ec 08          	sub    rsp,0x8
    1208:	e8 f3 fd ff ff       	call   1000 <_init>
    120d:	48 c1 fd 03          	sar    rbp,0x3
    1211:	74 1b                	je     122e <__libc_csu_init+0x4e>
    1213:	31 db                	xor    ebx,ebx
    1215:	0f 1f 00             	nop    DWORD PTR [rax]
    1218:	4c 89 f2             	mov    rdx,r14
    121b:	4c 89 ee             	mov    rsi,r13
    121e:	44 89 e7             	mov    edi,r12d
    1221:	41 ff 14 df          	call   QWORD PTR [r15+rbx*8]
    1225:	48 83 c3 01          	add    rbx,0x1
    1229:	48 39 dd             	cmp    rbp,rbx
    122c:	75 ea                	jne    1218 <__libc_csu_init+0x38>
    122e:	48 83 c4 08          	add    rsp,0x8
    1232:	5b                   	pop    rbx
    1233:	5d                   	pop    rbp
    1234:	41 5c                	pop    r12
    1236:	41 5d                	pop    r13
    1238:	41 5e                	pop    r14
    123a:	41 5f                	pop    r15
    123c:	c3                   	ret    
    123d:	0f 1f 00             	nop    DWORD PTR [rax]

0000000000001240 <__libc_csu_fini>:
    1240:	c3                   	ret    

Disassembly of section .fini:

0000000000001244 <_fini>:
    1244:	48 83 ec 08          	sub    rsp,0x8
    1248:	48 83 c4 08          	add    rsp,0x8
    124c:	c3                   	ret    
